target datalayout = "e-m:e-p270:32:32-p271:32:32-p272:64:64-i64:64-i128:128-f80:128-n8:16:32:64-S128"
target triple = "x86_64-pc-linux-gnu"

@H5P_CLS_FILE_CREATE_ID_g = external global i64, align 8
@H5_libinit_g = external global i8, align 1
@H5_libterm_g = external global i8, align 1
@.str.1 = private unnamed_addr constant [101 x i8] c"generated/home/dtcxzyw/WorkSpace/Projects/compilers/llvm-opt-benchmark/bench/hdf5/hdf5/src/H5Pfcpl.c\00", align 1
@H5E_FUNC_g = external global i64, align 8
@H5E_CANTINIT_g = external global i64, align 8
@.str.2 = private unnamed_addr constant [30 x i8] c"library initialization failed\00", align 1
@H5E_CANTSET_g = external global i64, align 8
@.str.3 = private unnamed_addr constant [22 x i8] c"can't set API context\00", align 1
@H5E_ARGS_g = external global i64, align 8
@H5E_BADVALUE_g = external global i64, align 8
@H5E_ID_g = external global i64, align 8
@H5E_BADID_g = external global i64, align 8
@.str.6 = private unnamed_addr constant [25 x i8] c"can't find object for ID\00", align 1
@H5E_PLIST_g = external global i64, align 8
@__func__.H5Pset_file_space_strategy = private unnamed_addr constant [27 x i8] c"H5Pset_file_space_strategy\00", align 1
@.str.50 = private unnamed_addr constant [17 x i8] c"invalid strategy\00", align 1
@.str.51 = private unnamed_addr constant [20 x i8] c"file_space_strategy\00", align 1
@.str.52 = private unnamed_addr constant [30 x i8] c"can't set file space strategy\00", align 1
@.str.53 = private unnamed_addr constant [19 x i8] c"free_space_persist\00", align 1
@.str.54 = private unnamed_addr constant [39 x i8] c"can't set free-space persisting status\00", align 1
@.str.55 = private unnamed_addr constant [21 x i8] c"free_space_threshold\00", align 1
@.str.56 = private unnamed_addr constant [31 x i8] c"can't set free-space threshold\00", align 1

; Function Attrs: nounwind uwtable
define i32 @H5Pset_file_space_strategy(i64 noundef %0, i32 noundef %1, i1 noundef zeroext %2, i64 noundef %3) #0 {
  %5 = alloca i64, align 8
  %6 = alloca i32, align 4
  %7 = alloca i8, align 1
  %8 = alloca i64, align 8
  %9 = alloca ptr, align 8
  %10 = alloca i32, align 4
  %11 = alloca i8, align 1
  %12 = alloca i8, align 1
  store i64 %0, ptr %5, align 8
  store i32 %1, ptr %6, align 4
  %13 = zext i1 %2 to i8
  store i8 %13, ptr %7, align 1
  store i64 %3, ptr %8, align 8
  store i32 0, ptr %10, align 4
  store i8 0, ptr %11, align 1
  store i8 0, ptr %12, align 1
  %14 = load i8, ptr @H5_libinit_g, align 1
  %15 = trunc i8 %14 to i1
  br i1 %15, label %20, label %16

16:                                               ; preds = %4
  %17 = load i8, ptr @H5_libterm_g, align 1
  %18 = trunc i8 %17 to i1
  %19 = xor i1 %18, true
  br label %20

20:                                               ; preds = %16, %4
  %21 = phi i1 [ false, %4 ], [ %19, %16 ]
  %22 = xor i1 %21, true
  %23 = xor i1 %22, true
  %24 = zext i1 %23 to i32
  %25 = sext i32 %24 to i64
  %26 = icmp ne i64 %25, 0
  br i1 %26, label %27, label %51

27:                                               ; preds = %20
  %28 = call i32 @H5_init_library()
  %29 = icmp slt i32 %28, 0
  %30 = xor i1 %29, true
  %31 = xor i1 %30, true
  %32 = zext i1 %31 to i32
  %33 = sext i32 %32 to i64
  %34 = icmp ne i64 %33, 0
  br i1 %34, label %35, label %50

35:                                               ; preds = %27
  br label %36

36:                                               ; preds = %35
  br label %37

37:                                               ; preds = %36
  br label %38

38:                                               ; preds = %37
  %39 = load i64, ptr @H5E_FUNC_g, align 8
  %40 = load i64, ptr @H5E_CANTINIT_g, align 8
  %41 = call i32 (ptr, ptr, i32, i64, i64, ptr, ...) @H5E_printf_stack(ptr noundef @.str.1, ptr noundef @__func__.H5Pset_file_space_strategy, i32 noundef 1185, i64 noundef %39, i64 noundef %40, ptr noundef @.str.2)
  br label %42

42:                                               ; preds = %38
  store i8 1, ptr %12, align 1
  %43 = load i8, ptr %12, align 1
  %44 = trunc i8 %43 to i1
  %45 = zext i1 %44 to i8
  store i8 %45, ptr %12, align 1
  br label %46

46:                                               ; preds = %42
  br label %47

47:                                               ; preds = %46
  store i32 -1, ptr %10, align 4
  br label %179

48:                                               ; No predecessors!
  br label %49

49:                                               ; preds = %48
  br label %50

50:                                               ; preds = %49, %27
  br label %51

51:                                               ; preds = %50, %20
  %52 = call i32 @H5CX_push()
  %53 = icmp slt i32 %52, 0
  %54 = xor i1 %53, true
  %55 = xor i1 %54, true
  %56 = zext i1 %55 to i32
  %57 = sext i32 %56 to i64
  %58 = icmp ne i64 %57, 0
  br i1 %58, label %59, label %74

59:                                               ; preds = %51
  br label %60

60:                                               ; preds = %59
  br label %61

61:                                               ; preds = %60
  br label %62

62:                                               ; preds = %61
  %63 = load i64, ptr @H5E_FUNC_g, align 8
  %64 = load i64, ptr @H5E_CANTSET_g, align 8
  %65 = call i32 (ptr, ptr, i32, i64, i64, ptr, ...) @H5E_printf_stack(ptr noundef @.str.1, ptr noundef @__func__.H5Pset_file_space_strategy, i32 noundef 1185, i64 noundef %63, i64 noundef %64, ptr noundef @.str.3)
  br label %66

66:                                               ; preds = %62
  store i8 1, ptr %12, align 1
  %67 = load i8, ptr %12, align 1
  %68 = trunc i8 %67 to i1
  %69 = zext i1 %68 to i8
  store i8 %69, ptr %12, align 1
  br label %70

70:                                               ; preds = %66
  br label %71

71:                                               ; preds = %70
  store i32 -1, ptr %10, align 4
  br label %179

72:                                               ; No predecessors!
  br label %73

73:                                               ; preds = %72
  br label %75

74:                                               ; preds = %51
  store i8 1, ptr %11, align 1
  br label %75

75:                                               ; preds = %74, %73
  %76 = call i32 @H5E_clear_stack()
  %77 = load i32, ptr %6, align 4
  %78 = icmp uge i32 %77, 4
  br i1 %78, label %79, label %94

79:                                               ; preds = %75
  br label %80

80:                                               ; preds = %79
  br label %81

81:                                               ; preds = %80
  br label %82

82:                                               ; preds = %81
  %83 = load i64, ptr @H5E_ARGS_g, align 8
  %84 = load i64, ptr @H5E_BADVALUE_g, align 8
  %85 = call i32 (ptr, ptr, i32, i64, i64, ptr, ...) @H5E_printf_stack(ptr noundef @.str.1, ptr noundef @__func__.H5Pset_file_space_strategy, i32 noundef 1189, i64 noundef %83, i64 noundef %84, ptr noundef @.str.50)
  br label %86

86:                                               ; preds = %82
  store i8 1, ptr %12, align 1
  %87 = load i8, ptr %12, align 1
  %88 = trunc i8 %87 to i1
  %89 = zext i1 %88 to i8
  store i8 %89, ptr %12, align 1
  br label %90

90:                                               ; preds = %86
  br label %91

91:                                               ; preds = %90
  store i32 -1, ptr %10, align 4
  br label %179

92:                                               ; No predecessors!
  br label %93

93:                                               ; preds = %92
  br label %94

94:                                               ; preds = %93, %75
  %95 = load i64, ptr %5, align 8
  %96 = load i64, ptr @H5P_CLS_FILE_CREATE_ID_g, align 8
  %97 = call ptr @H5P_object_verify(i64 noundef %95, i64 noundef %96)
  store ptr %97, ptr %9, align 8
  %98 = icmp eq ptr null, %97
  br i1 %98, label %99, label %114

99:                                               ; preds = %94
  br label %100

100:                                              ; preds = %99
  br label %101

101:                                              ; preds = %100
  br label %102

102:                                              ; preds = %101
  %103 = load i64, ptr @H5E_ID_g, align 8
  %104 = load i64, ptr @H5E_BADID_g, align 8
  %105 = call i32 (ptr, ptr, i32, i64, i64, ptr, ...) @H5E_printf_stack(ptr noundef @.str.1, ptr noundef @__func__.H5Pset_file_space_strategy, i32 noundef 1193, i64 noundef %103, i64 noundef %104, ptr noundef @.str.6)
  br label %106

106:                                              ; preds = %102
  store i8 1, ptr %12, align 1
  %107 = load i8, ptr %12, align 1
  %108 = trunc i8 %107 to i1
  %109 = zext i1 %108 to i8
  store i8 %109, ptr %12, align 1
  br label %110

110:                                              ; preds = %106
  br label %111

111:                                              ; preds = %110
  store i32 -1, ptr %10, align 4
  br label %179

112:                                              ; No predecessors!
  br label %113

113:                                              ; preds = %112
  br label %114

114:                                              ; preds = %113, %94
  %115 = load ptr, ptr %9, align 8
  %116 = call i32 @H5P_set(ptr noundef %115, ptr noundef @.str.51, ptr noundef %6)
  %117 = icmp slt i32 %116, 0
  br i1 %117, label %118, label %133

118:                                              ; preds = %114
  br label %119

119:                                              ; preds = %118
  br label %120

120:                                              ; preds = %119
  br label %121

121:                                              ; preds = %120
  %122 = load i64, ptr @H5E_PLIST_g, align 8
  %123 = load i64, ptr @H5E_CANTSET_g, align 8
  %124 = call i32 (ptr, ptr, i32, i64, i64, ptr, ...) @H5E_printf_stack(ptr noundef @.str.1, ptr noundef @__func__.H5Pset_file_space_strategy, i32 noundef 1197, i64 noundef %122, i64 noundef %123, ptr noundef @.str.52)
  br label %125

125:                                              ; preds = %121
  store i8 1, ptr %12, align 1
  %126 = load i8, ptr %12, align 1
  %127 = trunc i8 %126 to i1
  %128 = zext i1 %127 to i8
  store i8 %128, ptr %12, align 1
  br label %129

129:                                              ; preds = %125
  br label %130

130:                                              ; preds = %129
  store i32 -1, ptr %10, align 4
  br label %179

131:                                              ; No predecessors!
  br label %132

132:                                              ; preds = %131
  br label %133

133:                                              ; preds = %132, %114
  %134 = load i32, ptr %6, align 4
  %135 = icmp eq i32 %134, 0
  br i1 %135, label %139, label %136

136:                                              ; preds = %133
  %137 = load i32, ptr %6, align 4
  %138 = icmp eq i32 %137, 1
  br i1 %138, label %139, label %178

139:                                              ; preds = %136, %133
  %140 = load ptr, ptr %9, align 8
  %141 = call i32 @H5P_set(ptr noundef %140, ptr noundef @.str.53, ptr noundef %7)
  %142 = icmp slt i32 %141, 0
  br i1 %142, label %143, label %158

143:                                              ; preds = %139
  br label %144

144:                                              ; preds = %143
  br label %145

145:                                              ; preds = %144
  br label %146

146:                                              ; preds = %145
  %147 = load i64, ptr @H5E_PLIST_g, align 8
  %148 = load i64, ptr @H5E_CANTSET_g, align 8
  %149 = call i32 (ptr, ptr, i32, i64, i64, ptr, ...) @H5E_printf_stack(ptr noundef @.str.1, ptr noundef @__func__.H5Pset_file_space_strategy, i32 noundef 1202, i64 noundef %147, i64 noundef %148, ptr noundef @.str.54)
  br label %150

150:                                              ; preds = %146
  store i8 1, ptr %12, align 1
  %151 = load i8, ptr %12, align 1
  %152 = trunc i8 %151 to i1
  %153 = zext i1 %152 to i8
  store i8 %153, ptr %12, align 1
  br label %154

154:                                              ; preds = %150
  br label %155

155:                                              ; preds = %154
  store i32 -1, ptr %10, align 4
  br label %179

156:                                              ; No predecessors!
  br label %157

157:                                              ; preds = %156
  br label %158

158:                                              ; preds = %157, %139
  %159 = load ptr, ptr %9, align 8
  %160 = call i32 @H5P_set(ptr noundef %159, ptr noundef @.str.55, ptr noundef %8)
  %161 = icmp slt i32 %160, 0
  br i1 %161, label %162, label %177

162:                                              ; preds = %158
  br label %163

163:                                              ; preds = %162
  br label %164

164:                                              ; preds = %163
  br label %165

165:                                              ; preds = %164
  %166 = load i64, ptr @H5E_PLIST_g, align 8
  %167 = load i64, ptr @H5E_CANTSET_g, align 8
  %168 = call i32 (ptr, ptr, i32, i64, i64, ptr, ...) @H5E_printf_stack(ptr noundef @.str.1, ptr noundef @__func__.H5Pset_file_space_strategy, i32 noundef 1205, i64 noundef %166, i64 noundef %167, ptr noundef @.str.56)
  br label %169

169:                                              ; preds = %165
  store i8 1, ptr %12, align 1
  %170 = load i8, ptr %12, align 1
  %171 = trunc i8 %170 to i1
  %172 = zext i1 %171 to i8
  store i8 %172, ptr %12, align 1
  br label %173

173:                                              ; preds = %169
  br label %174

174:                                              ; preds = %173
  store i32 -1, ptr %10, align 4
  br label %179

175:                                              ; No predecessors!
  br label %176

176:                                              ; preds = %175
  br label %177

177:                                              ; preds = %176, %158
  br label %178

178:                                              ; preds = %177, %136
  br label %179

179:                                              ; preds = %178, %174, %155, %130, %111, %91, %71, %47
  %180 = load i8, ptr %11, align 1
  %181 = trunc i8 %180 to i1
  %182 = xor i1 %181, true
  %183 = xor i1 %182, true
  %184 = zext i1 %183 to i32
  %185 = sext i32 %184 to i64
  %186 = icmp ne i64 %185, 0
  br i1 %186, label %187, label %189

187:                                              ; preds = %179
  %188 = call i32 @H5CX_pop(i1 noundef zeroext true)
  store i8 0, ptr %11, align 1
  br label %189

189:                                              ; preds = %187, %179
  %190 = load i8, ptr %12, align 1
  %191 = trunc i8 %190 to i1
  %192 = xor i1 %191, true
  %193 = xor i1 %192, true
  %194 = zext i1 %193 to i32
  %195 = sext i32 %194 to i64
  %196 = icmp ne i64 %195, 0
  br i1 %196, label %197, label %199

197:                                              ; preds = %189
  %198 = call i32 @H5E_dump_api_stack()
  br label %199

199:                                              ; preds = %197, %189
  %200 = load i32, ptr %10, align 4
  ret i32 %200
}