; Function Attrs: nounwind uwtable
define range(i32 -1, 1) i32 @H5Pset_file_space_strategy(i64 noundef %0, i32 noundef %1, i1 noundef zeroext %2, i64 noundef %3) local_unnamed_addr #0 {
  %5 = alloca i32, align 4
  %6 = alloca i8, align 1
  %7 = alloca i64, align 8
  store i32 %1, ptr %5, align 4
  %8 = zext i1 %2 to i8
  store i8 %8, ptr %6, align 1
  store i64 %3, ptr %7, align 8
  %9 = load i8, ptr @H5_libinit_g, align 1
  %10 = trunc i8 %9 to i1
  %11 = load i8, ptr @H5_libterm_g, align 1
  %12 = trunc i8 %11 to i1
  %13 = select i1 %10, i1 true, i1 %12
  br i1 %13, label %21, label %14

14:                                               ; preds = %4
  %15 = tail call i32 @H5_init_library() #6
  %16 = icmp slt i32 %15, 0
  br i1 %16, label %17, label %21

17:                                               ; preds = %14
  %18 = load i64, ptr @H5E_FUNC_g, align 8
  %19 = load i64, ptr @H5E_CANTINIT_g, align 8
  %20 = tail call i32 (ptr, ptr, i32, i64, i64, ptr, ...) @H5E_printf_stack(ptr noundef nonnull @.str.1, ptr noundef nonnull @__func__.H5Pset_file_space_strategy, i32 noundef 1185, i64 noundef %18, i64 noundef %19, ptr noundef nonnull @.str.2) #6
  br label %.thread25

21:                                               ; preds = %14, %4
  %22 = tail call i32 @H5CX_push() #6
  %23 = icmp slt i32 %22, 0
  br i1 %23, label %24, label %28

24:                                               ; preds = %21
  %25 = load i64, ptr @H5E_FUNC_g, align 8
  %26 = load i64, ptr @H5E_CANTSET_g, align 8
  %27 = tail call i32 (ptr, ptr, i32, i64, i64, ptr, ...) @H5E_printf_stack(ptr noundef nonnull @.str.1, ptr noundef nonnull @__func__.H5Pset_file_space_strategy, i32 noundef 1185, i64 noundef %25, i64 noundef %26, ptr noundef nonnull @.str.3) #6
  br label %.thread25

28:                                               ; preds = %21
  %29 = tail call i32 @H5E_clear_stack() #6
  %30 = icmp ugt i32 %1, 3
  br i1 %30, label %31, label %35

31:                                               ; preds = %28
  %32 = load i64, ptr @H5E_ARGS_g, align 8
  %33 = load i64, ptr @H5E_BADVALUE_g, align 8
  %34 = tail call i32 (ptr, ptr, i32, i64, i64, ptr, ...) @H5E_printf_stack(ptr noundef nonnull @.str.1, ptr noundef nonnull @__func__.H5Pset_file_space_strategy, i32 noundef 1189, i64 noundef %32, i64 noundef %33, ptr noundef nonnull @.str.50) #6
  br label %.thread31

35:                                               ; preds = %28
  %36 = load i64, ptr @H5P_CLS_FILE_CREATE_ID_g, align 8
  %37 = tail call ptr @H5P_object_verify(i64 noundef %0, i64 noundef %36) #6
  %38 = icmp eq ptr %37, null
  br i1 %38, label %39, label %43

39:                                               ; preds = %35
  %40 = load i64, ptr @H5E_ID_g, align 8
  %41 = load i64, ptr @H5E_BADID_g, align 8
  %42 = tail call i32 (ptr, ptr, i32, i64, i64, ptr, ...) @H5E_printf_stack(ptr noundef nonnull @.str.1, ptr noundef nonnull @__func__.H5Pset_file_space_strategy, i32 noundef 1193, i64 noundef %40, i64 noundef %41, ptr noundef nonnull @.str.6) #6
  br label %.thread31

43:                                               ; preds = %35
  %44 = call i32 @H5P_set(ptr noundef nonnull %37, ptr noundef nonnull @.str.51, ptr noundef nonnull %5) #6
  %45 = icmp slt i32 %44, 0
  br i1 %45, label %46, label %50

46:                                               ; preds = %43
  %47 = load i64, ptr @H5E_PLIST_g, align 8
  %48 = load i64, ptr @H5E_CANTSET_g, align 8
  %49 = call i32 (ptr, ptr, i32, i64, i64, ptr, ...) @H5E_printf_stack(ptr noundef nonnull @.str.1, ptr noundef nonnull @__func__.H5Pset_file_space_strategy, i32 noundef 1197, i64 noundef %47, i64 noundef %48, ptr noundef nonnull @.str.52) #6
  br label %.thread31

50:                                               ; preds = %43
  %51 = load i32, ptr %5, align 4
  %or.cond = icmp ult i32 %51, 2
  br i1 %or.cond, label %52, label %67

52:                                               ; preds = %50
  %53 = call i32 @H5P_set(ptr noundef nonnull %37, ptr noundef nonnull @.str.53, ptr noundef nonnull %6) #6
  %54 = icmp slt i32 %53, 0
  br i1 %54, label %55, label %59

55:                                               ; preds = %52
  %56 = load i64, ptr @H5E_PLIST_g, align 8
  %57 = load i64, ptr @H5E_CANTSET_g, align 8
  %58 = call i32 (ptr, ptr, i32, i64, i64, ptr, ...) @H5E_printf_stack(ptr noundef nonnull @.str.1, ptr noundef nonnull @__func__.H5Pset_file_space_strategy, i32 noundef 1202, i64 noundef %56, i64 noundef %57, ptr noundef nonnull @.str.54) #6
  br label %.thread31

59:                                               ; preds = %52
  %60 = call i32 @H5P_set(ptr noundef nonnull %37, ptr noundef nonnull @.str.55, ptr noundef nonnull %7) #6
  %61 = icmp slt i32 %60, 0
  br i1 %61, label %62, label %67

62:                                               ; preds = %59
  %63 = load i64, ptr @H5E_PLIST_g, align 8
  %64 = load i64, ptr @H5E_CANTSET_g, align 8
  %65 = call i32 (ptr, ptr, i32, i64, i64, ptr, ...) @H5E_printf_stack(ptr noundef nonnull @.str.1, ptr noundef nonnull @__func__.H5Pset_file_space_strategy, i32 noundef 1205, i64 noundef %63, i64 noundef %64, ptr noundef nonnull @.str.56) #6
  br label %.thread31

.thread31:                                        ; preds = %62, %55, %46, %39, %31
  %66 = call i32 @H5CX_pop(i1 noundef zeroext true) #6
  br label %.thread25

67:                                               ; preds = %50, %59
  %68 = call i32 @H5CX_pop(i1 noundef zeroext true) #6
  br label %70

.thread25:                                        ; preds = %24, %17, %.thread31
  %69 = call i32 @H5E_dump_api_stack() #6
  br label %70

70:                                               ; preds = %67, %.thread25
  %.0152028 = phi i32 [ -1, %.thread25 ], [ 0, %67 ]
  ret i32 %.0152028
}